; ModuleID = '43/635.c'
source_filename = "43/635.c"
target datalayout = "e-m:e-p270:32:32-p271:32:32-p272:64:64-i64:64-f80:128-n8:16:32:64-S128"
target triple = "x86_64-pc-linux-gnu"

@.str = private unnamed_addr constant [3 x i8] c"%d\00", align 1
@.str.1 = private unnamed_addr constant [7 x i8] c"%d %d\0A\00", align 1

; Function Attrs: noinline nounwind uwtable
define dso_local void @main() #0 {
  %1 = alloca i32, align 4
  %2 = alloca i32, align 4
  %3 = alloca i32, align 4
  %4 = alloca i32, align 4
  %5 = alloca i32, align 4
  %6 = alloca [10000 x i32], align 16
  store i32 0, i32* %5, align 4
  %7 = call i32 (i8*, ...) @__isoc99_scanf(i8* getelementptr inbounds ([3 x i8], [3 x i8]* @.str, i64 0, i64 0), i32* %3)
  store i32 3, i32* %1, align 4
  br label %8

8:                                                ; preds = %43, %0
  %9 = load i32, i32* %1, align 4
  %10 = load i32, i32* %3, align 4
  %11 = icmp sle i32 %9, %10
  br i1 %11, label %12, label %46

12:                                               ; preds = %8
  %13 = load i32, i32* %1, align 4
  %14 = sitofp i32 %13 to double
  %15 = call double @sqrt(double %14) #3
  %16 = fptosi double %15 to i32
  store i32 %16, i32* %4, align 4
  store i32 3, i32* %2, align 4
  br label %17

17:                                               ; preds = %28, %12
  %18 = load i32, i32* %2, align 4
  %19 = load i32, i32* %4, align 4
  %20 = icmp sle i32 %18, %19
  br i1 %20, label %21, label %31

21:                                               ; preds = %17
  %22 = load i32, i32* %1, align 4
  %23 = load i32, i32* %2, align 4
  %24 = srem i32 %22, %23
  %25 = icmp eq i32 %24, 0
  br i1 %25, label %26, label %27

26:                                               ; preds = %21
  br label %31

27:                                               ; preds = %21
  br label %28

28:                                               ; preds = %27
  %29 = load i32, i32* %2, align 4
  %30 = add nsw i32 %29, 2
  store i32 %30, i32* %2, align 4
  br label %17

31:                                               ; preds = %26, %17
  %32 = load i32, i32* %2, align 4
  %33 = load i32, i32* %4, align 4
  %34 = icmp sgt i32 %32, %33
  br i1 %34, label %35, label %42

35:                                               ; preds = %31
  %36 = load i32, i32* %1, align 4
  %37 = load i32, i32* %5, align 4
  %38 = sext i32 %37 to i64
  %39 = getelementptr inbounds [10000 x i32], [10000 x i32]* %6, i64 0, i64 %38
  store i32 %36, i32* %39, align 4
  %40 = load i32, i32* %5, align 4
  %41 = add nsw i32 %40, 1
  store i32 %41, i32* %5, align 4
  br label %42

42:                                               ; preds = %35, %31
  br label %43

43:                                               ; preds = %42
  %44 = load i32, i32* %1, align 4
  %45 = add nsw i32 %44, 2
  store i32 %45, i32* %1, align 4
  br label %8

46:                                               ; preds = %8
  store i32 0, i32* %1, align 4
  br label %47

47:                                               ; preds = %84, %46
  %48 = load i32, i32* %1, align 4
  %49 = load i32, i32* %5, align 4
  %50 = icmp sle i32 %48, %49
  br i1 %50, label %51, label %87

51:                                               ; preds = %47
  %52 = load i32, i32* %1, align 4
  store i32 %52, i32* %2, align 4
  br label %53

53:                                               ; preds = %80, %51
  %54 = load i32, i32* %2, align 4
  %55 = load i32, i32* %5, align 4
  %56 = icmp sle i32 %54, %55
  br i1 %56, label %57, label %83

57:                                               ; preds = %53
  %58 = load i32, i32* %3, align 4
  %59 = load i32, i32* %1, align 4
  %60 = sext i32 %59 to i64
  %61 = getelementptr inbounds [10000 x i32], [10000 x i32]* %6, i64 0, i64 %60
  %62 = load i32, i32* %61, align 4
  %63 = load i32, i32* %2, align 4
  %64 = sext i32 %63 to i64
  %65 = getelementptr inbounds [10000 x i32], [10000 x i32]* %6, i64 0, i64 %64
  %66 = load i32, i32* %65, align 4
  %67 = add nsw i32 %62, %66
  %68 = icmp eq i32 %58, %67
  br i1 %68, label %69, label %79

69:                                               ; preds = %57
  %70 = load i32, i32* %1, align 4
  %71 = sext i32 %70 to i64
  %72 = getelementptr inbounds [10000 x i32], [10000 x i32]* %6, i64 0, i64 %71
  %73 = load i32, i32* %72, align 4
  %74 = load i32, i32* %2, align 4
  %75 = sext i32 %74 to i64
  %76 = getelementptr inbounds [10000 x i32], [10000 x i32]* %6, i64 0, i64 %75
  %77 = load i32, i32* %76, align 4
  %78 = call i32 (i8*, ...) @printf(i8* getelementptr inbounds ([7 x i8], [7 x i8]* @.str.1, i64 0, i64 0), i32 %73, i32 %77)
  br label %79

79:                                               ; preds = %69, %57
  br label %80

80:                                               ; preds = %79
  %81 = load i32, i32* %2, align 4
  %82 = add nsw i32 %81, 1
  store i32 %82, i32* %2, align 4
  br label %53

83:                                               ; preds = %53
  br label %84

84:                                               ; preds = %83
  %85 = load i32, i32* %1, align 4
  %86 = add nsw i32 %85, 1
  store i32 %86, i32* %1, align 4
  br label %47

87:                                               ; preds = %47
  ret void
}

declare dso_local i32 @__isoc99_scanf(i8*, ...) #1

; Function Attrs: nounwind
declare dso_local double @sqrt(double) #2

declare dso_local i32 @printf(i8*, ...) #1


!llvm.module.flags = !{!0}
!llvm.ident = !{!1}

!0 = !{i32 1, !"wchar_size", i32 4}
!1 = !{!"clang version 10.0.0-4ubuntu1 "}
